; Function Attrs: mustprogress uwtable
define hidden noundef i32 @_ZNK4cvc58internal13SkolemManager5getIdENS0_12NodeTemplateILb0EEE(ptr noundef nonnull readnone align 8 captures(none) dereferenceable(104) %0, ptr noundef readonly captures(none) %1) local_unnamed_addr #4 align 2 personality ptr @__gxx_personality_v0 {
  %3 = alloca i32, align 4
  %4 = alloca %"class.cvc5::internal::NodeTemplate", align 8
  %5 = alloca %"class.cvc5::internal::NodeTemplate.101", align 8
  call void @llvm.lifetime.start.p0(i64 4, ptr nonnull %3) #27
  call void @llvm.lifetime.start.p0(i64 8, ptr nonnull %4) #27
  %6 = load atomic i8, ptr @_ZGVZN4cvc58internal4expr9NodeValue4nullEvE6s_null acquire, align 8
  %7 = icmp eq i8 %6, 0
  br i1 %7, label %8, label %_ZN4cvc58internal12NodeTemplateILb1EEC2Ev.exit, !prof !27

8:                                                ; preds = %2
  %9 = tail call i32 @__cxa_guard_acquire(ptr nonnull @_ZGVZN4cvc58internal4expr9NodeValue4nullEvE6s_null) #27
  %.not.i.i = icmp eq i32 %9, 0
  br i1 %.not.i.i, label %_ZN4cvc58internal12NodeTemplateILb1EEC2Ev.exit, label %10

10:                                               ; preds = %8
  %11 = invoke noalias noundef nonnull dereferenceable(24) ptr @_Znwm(i64 noundef 24) #28
          to label %12 unwind label %14

12:                                               ; preds = %10
  store i64 1152920405095219200, ptr %11, align 8
  %13 = getelementptr inbounds nuw i8, ptr %11, i64 8
  tail call void @llvm.memset.p0.i64(ptr noundef nonnull align 8 dereferenceable(16) %13, i8 0, i64 16, i1 false)
  store ptr %11, ptr @_ZZN4cvc58internal4expr9NodeValue4nullEvE6s_null, align 8, !tbaa !28
  tail call void @__cxa_guard_release(ptr nonnull @_ZGVZN4cvc58internal4expr9NodeValue4nullEvE6s_null) #27
  br label %_ZN4cvc58internal12NodeTemplateILb1EEC2Ev.exit

common.resume:                                    ; preds = %34, %14
  %common.resume.op = phi { ptr, i32 } [ %15, %14 ], [ %35, %34 ]
  resume { ptr, i32 } %common.resume.op

14:                                               ; preds = %10
  %15 = landingpad { ptr, i32 }
          cleanup
  tail call void @__cxa_guard_abort(ptr nonnull @_ZGVZN4cvc58internal4expr9NodeValue4nullEvE6s_null) #27
  br label %common.resume

_ZN4cvc58internal12NodeTemplateILb1EEC2Ev.exit:   ; preds = %2, %8, %12
  %16 = load ptr, ptr @_ZZN4cvc58internal4expr9NodeValue4nullEvE6s_null, align 8, !tbaa !28
  store ptr %16, ptr %4, align 8, !tbaa !16
  %17 = load ptr, ptr %1, align 8, !tbaa !70
  store ptr %17, ptr %5, align 8, !tbaa !70
  %18 = invoke noundef zeroext i1 @_ZN4cvc58internal13SkolemManager16isSkolemFunctionENS0_12NodeTemplateILb0EEERNS_8SkolemIdERNS2_ILb1EEE(ptr noundef nonnull %5, ptr noundef nonnull align 4 dereferenceable(4) %3, ptr noundef nonnull align 8 dereferenceable(8) %4)
          to label %19 unwind label %34

19:                                               ; preds = %_ZN4cvc58internal12NodeTemplateILb1EEC2Ev.exit
  %20 = load i32, ptr %3, align 4
  %21 = load ptr, ptr %4, align 8, !tbaa !16
  %22 = load i64, ptr %21, align 8
  %23 = and i64 %22, 1152920405095219200
  %.not.i.i2 = icmp eq i64 %23, 1152920405095219200
  br i1 %.not.i.i2, label %_ZN4cvc58internal12NodeTemplateILb1EED2Ev.exit, label %24, !prof !26

24:                                               ; preds = %19
  %25 = add i64 %22, 1152920405095219200
  %26 = and i64 %25, 1152920405095219200
  %27 = and i64 %22, -1152920405095219201
  %28 = or disjoint i64 %26, %27
  store i64 %28, ptr %21, align 8
  %29 = icmp eq i64 %26, 0
  br i1 %29, label %30, label %_ZN4cvc58internal12NodeTemplateILb1EED2Ev.exit, !prof !26

30:                                               ; preds = %24
  invoke void @_ZN4cvc58internal4expr9NodeValue15markForDeletionEv(ptr noundef nonnull align 8 dereferenceable(24) %21)
          to label %_ZN4cvc58internal12NodeTemplateILb1EED2Ev.exit unwind label %31

31:                                               ; preds = %30
  %32 = landingpad { ptr, i32 }
          catch ptr null
  %33 = extractvalue { ptr, i32 } %32, 0
  tail call void @__clang_call_terminate(ptr %33) #26
  unreachable

_ZN4cvc58internal12NodeTemplateILb1EED2Ev.exit:   ; preds = %19, %24, %30
  %.0 = select i1 %18, i32 %20, i32 64
  call void @llvm.lifetime.end.p0(i64 8, ptr nonnull %4) #27
  call void @llvm.lifetime.end.p0(i64 4, ptr nonnull %3) #27
  ret i32 %.0

34:                                               ; preds = %_ZN4cvc58internal12NodeTemplateILb1EEC2Ev.exit
  %35 = landingpad { ptr, i32 }
          cleanup
  call void @_ZN4cvc58internal12NodeTemplateILb1EED2Ev(ptr noundef nonnull align 8 dereferenceable(8) %4) #27
  call void @llvm.lifetime.end.p0(i64 8, ptr nonnull %4) #27
  call void @llvm.lifetime.end.p0(i64 4, ptr nonnull %3) #27
  br label %common.resume
}